target datalayout = "e-m:e-p270:32:32-p271:32:32-p272:64:64-i64:64-i128:128-f80:128-n8:16:32:64-S128"
target triple = "x86_64-pc-linux-gnu"

%class.LogTagSet = type { ptr, i64, [5 x i32], [4 x i8], %class.LogOutputList, %class.LogDecorators, ptr }
%class.LogOutputList = type <{ [6 x ptr], i32, [4 x i8] }>
%class.LogDecorators = type { i32 }
%class.ReservedSpace = type <{ ptr, i64, i64, i64, i64, i8, [3 x i8], i32, i8, [7 x i8] }>
%struct.__va_list_tag = type { i32, i32, ptr, ptr }

@_ZN16LogTagSetMappingILN6LogTag4typeE49ELS1_52ELS1_27ELS1_0ELS1_0ELS1_0EE7_tagsetE = linkonce_odr hidden global %class.LogTagSet zeroinitializer, comdat, align 8
@_ZN6OSInfo26_vm_allocation_granularityE = external global i64, align 8
@_ZN6OSInfo13_vm_page_sizeE = external global i64, align 8
@.str.34 = private unnamed_addr constant [63 x i8] c"Reserved memory not at requested address: 0x%016lx vs 0x%016lx\00", align 1

; Function Attrs: mustprogress nounwind uwtable
define linkonce_odr hidden noundef zeroext i1 @_ZNK13LogOutputList8is_levelEN8LogLevel4typeE(ptr noundef nonnull align 8 dereferenceable(52) %0, i32 noundef %1) #1 comdat align 2 {
  %3 = alloca ptr, align 8
  %4 = alloca i32, align 4
  store ptr %0, ptr %3, align 8
  store i32 %1, ptr %4, align 4
  %5 = load ptr, ptr %3, align 8
  %6 = getelementptr inbounds %class.LogOutputList, ptr %5, i32 0, i32 0
  %7 = load i32, ptr %4, align 4
  %8 = zext i32 %7 to i64
  %9 = getelementptr inbounds [6 x ptr], ptr %6, i64 0, i64 %8
  %10 = load volatile ptr, ptr %9, align 8
  %11 = icmp ne ptr %10, null
  ret i1 %11
}

; Function Attrs: mustprogress nounwind uwtable
define linkonce_odr hidden void @_ZN7LogImplILN6LogTag4typeE49ELS1_52ELS1_27ELS1_0ELS1_0ELS1_0EE6vwriteEN8LogLevel4typeEPKcP13__va_list_tag(i32 noundef %0, ptr noundef %1, ptr noundef %2) #1 comdat align 2 {
  %4 = alloca i32, align 4
  %5 = alloca ptr, align 8
  %6 = alloca ptr, align 8
  store i32 %0, ptr %4, align 4
  store ptr %1, ptr %5, align 8
  store ptr %2, ptr %6, align 8
  %7 = call noundef nonnull align 8 dereferenceable(112) ptr @_ZN16LogTagSetMappingILN6LogTag4typeE49ELS1_52ELS1_27ELS1_0ELS1_0ELS1_0EE6tagsetEv()
  %8 = load i32, ptr %4, align 4
  %9 = load ptr, ptr %5, align 8
  %10 = load ptr, ptr %6, align 8
  call void @_ZN9LogTagSet6vwriteEN8LogLevel4typeEPKcP13__va_list_tag(ptr noundef nonnull align 8 dereferenceable(112) %7, i32 noundef %8, ptr noundef %9, ptr noundef %10)
  ret void
}

; Function Attrs: mustprogress nounwind uwtable
define linkonce_odr hidden noundef zeroext i1 @_ZNK9LogTagSet8is_levelEN8LogLevel4typeE(ptr noundef nonnull align 8 dereferenceable(112) %0, i32 noundef %1) #1 comdat align 2 {
  %3 = alloca ptr, align 8
  %4 = alloca i32, align 4
  store ptr %0, ptr %3, align 8
  store i32 %1, ptr %4, align 4
  %5 = load ptr, ptr %3, align 8
  %6 = getelementptr inbounds %class.LogTagSet, ptr %5, i32 0, i32 4
  %7 = load i32, ptr %4, align 4
  %8 = call noundef zeroext i1 @_ZNK13LogOutputList8is_levelEN8LogLevel4typeE(ptr noundef nonnull align 8 dereferenceable(52) %6, i32 noundef %7)
  ret i1 %8
}

; Function Attrs: mustprogress nounwind uwtable
define linkonce_odr hidden noundef nonnull align 8 dereferenceable(112) ptr @_ZN16LogTagSetMappingILN6LogTag4typeE49ELS1_52ELS1_27ELS1_0ELS1_0ELS1_0EE6tagsetEv() #1 comdat align 2 {
  ret ptr @_ZN16LogTagSetMappingILN6LogTag4typeE49ELS1_52ELS1_27ELS1_0ELS1_0ELS1_0EE7_tagsetE
}

; Function Attrs: mustprogress nounwind uwtable
define linkonce_odr hidden noundef zeroext i1 @_ZNK13ReservedSpace7specialEv(ptr noundef nonnull align 8 dereferenceable(49) %0) #1 comdat align 2 {
  %2 = alloca ptr, align 8
  store ptr %0, ptr %2, align 8
  %3 = load ptr, ptr %2, align 8
  %4 = getelementptr inbounds %class.ReservedSpace, ptr %3, i32 0, i32 5
  %5 = load i8, ptr %4, align 8
  %6 = trunc i8 %5 to i1
  ret i1 %6
}

; Function Attrs: mustprogress nounwind uwtable
define linkonce_odr hidden noundef zeroext i1 @_ZNK13ReservedSpace11is_reservedEv(ptr noundef nonnull align 8 dereferenceable(49) %0) #1 comdat align 2 {
  %2 = alloca ptr, align 8
  store ptr %0, ptr %2, align 8
  %3 = load ptr, ptr %2, align 8
  %4 = getelementptr inbounds %class.ReservedSpace, ptr %3, i32 0, i32 0
  %5 = load ptr, ptr %4, align 8
  %6 = icmp ne ptr %5, null
  ret i1 %6
}

; Function Attrs: mustprogress nounwind uwtable
define linkonce_odr hidden void @_ZN7LogImplILN6LogTag4typeE49ELS1_52ELS1_27ELS1_0ELS1_0ELS1_0EE5writeILN8LogLevel4typeE2EEEvPKcz(ptr noundef %0, ...) #1 comdat align 2 {
  %2 = alloca ptr, align 8
  %3 = alloca [1 x %struct.__va_list_tag], align 16
  store ptr %0, ptr %2, align 8
  %4 = getelementptr inbounds [1 x %struct.__va_list_tag], ptr %3, i64 0, i64 0
  call void @llvm.va_start.p0(ptr %4)
  %5 = load ptr, ptr %2, align 8
  %6 = getelementptr inbounds [1 x %struct.__va_list_tag], ptr %3, i64 0, i64 0
  call void @_ZN7LogImplILN6LogTag4typeE49ELS1_52ELS1_27ELS1_0ELS1_0ELS1_0EE6vwriteEN8LogLevel4typeEPKcP13__va_list_tag(i32 noundef 2, ptr noundef %5, ptr noundef %6)
  %7 = getelementptr inbounds [1 x %struct.__va_list_tag], ptr %3, i64 0, i64 0
  call void @llvm.va_end.p0(ptr %7)
  ret void
}

; Function Attrs: mustprogress nounwind uwtable
define linkonce_odr hidden noundef i64 @_Z3p2iPVKv(ptr noundef %0) #1 comdat {
  %2 = alloca ptr, align 8
  store ptr %0, ptr %2, align 8
  %3 = load ptr, ptr %2, align 8
  %4 = ptrtoint ptr %3 to i64
  ret i64 %4
}

; Function Attrs: mustprogress nounwind uwtable
define linkonce_odr hidden noundef zeroext i1 @_ZN7LogImplILN6LogTag4typeE49ELS1_52ELS1_27ELS1_0ELS1_0ELS1_0EE8is_levelEN8LogLevel4typeE(i32 noundef %0) #1 comdat align 2 {
  %2 = alloca i32, align 4
  store i32 %0, ptr %2, align 4
  %3 = call noundef nonnull align 8 dereferenceable(112) ptr @_ZN16LogTagSetMappingILN6LogTag4typeE49ELS1_52ELS1_27ELS1_0ELS1_0ELS1_0EE6tagsetEv()
  %4 = load i32, ptr %2, align 4
  %5 = call noundef zeroext i1 @_ZNK9LogTagSet8is_levelEN8LogLevel4typeE(ptr noundef nonnull align 8 dereferenceable(112) %3, i32 noundef %4)
  ret i1 %5
}

; Function Attrs: mustprogress nounwind uwtable
define hidden void @_ZN13ReservedSpace18initialize_membersEPcmmmbb(ptr noundef nonnull align 8 dereferenceable(49) %0, ptr noundef %1, i64 noundef %2, i64 noundef %3, i64 noundef %4, i1 noundef zeroext %5, i1 noundef zeroext %6) #1 align 2 {
  %8 = alloca ptr, align 8
  %9 = alloca ptr, align 8
  %10 = alloca i64, align 8
  %11 = alloca i64, align 8
  %12 = alloca i64, align 8
  %13 = alloca i8, align 1
  %14 = alloca i8, align 1
  store ptr %0, ptr %8, align 8
  store ptr %1, ptr %9, align 8
  store i64 %2, ptr %10, align 8
  store i64 %3, ptr %11, align 8
  store i64 %4, ptr %12, align 8
  %15 = zext i1 %5 to i8
  store i8 %15, ptr %13, align 1
  %16 = zext i1 %6 to i8
  store i8 %16, ptr %14, align 1
  %17 = load ptr, ptr %8, align 8
  %18 = load ptr, ptr %9, align 8
  %19 = getelementptr inbounds %class.ReservedSpace, ptr %17, i32 0, i32 0
  store ptr %18, ptr %19, align 8
  %20 = load i64, ptr %10, align 8
  %21 = getelementptr inbounds %class.ReservedSpace, ptr %17, i32 0, i32 1
  store i64 %20, ptr %21, align 8
  %22 = load i64, ptr %11, align 8
  %23 = getelementptr inbounds %class.ReservedSpace, ptr %17, i32 0, i32 3
  store i64 %22, ptr %23, align 8
  %24 = load i64, ptr %12, align 8
  %25 = getelementptr inbounds %class.ReservedSpace, ptr %17, i32 0, i32 4
  store i64 %24, ptr %25, align 8
  %26 = load i8, ptr %13, align 1
  %27 = trunc i8 %26 to i1
  %28 = getelementptr inbounds %class.ReservedSpace, ptr %17, i32 0, i32 5
  %29 = zext i1 %27 to i8
  store i8 %29, ptr %28, align 8
  %30 = load i8, ptr %14, align 1
  %31 = trunc i8 %30 to i1
  %32 = getelementptr inbounds %class.ReservedSpace, ptr %17, i32 0, i32 8
  %33 = zext i1 %31 to i8
  store i8 %33, ptr %32, align 8
  %34 = getelementptr inbounds %class.ReservedSpace, ptr %17, i32 0, i32 2
  store i64 0, ptr %34, align 8
  ret void
}

; Function Attrs: mustprogress nounwind uwtable
define hidden void @_ZN13ReservedSpace7releaseEv(ptr noundef nonnull align 8 dereferenceable(49) %0) #1 align 2 {
  %2 = alloca ptr, align 8
  %3 = alloca ptr, align 8
  %4 = alloca i64, align 8
  store ptr %0, ptr %2, align 8
  %5 = load ptr, ptr %2, align 8
  %6 = call noundef zeroext i1 @_ZNK13ReservedSpace11is_reservedEv(ptr noundef nonnull align 8 dereferenceable(49) %5)
  br i1 %6, label %7, label %38

7:                                                ; preds = %1
  %8 = getelementptr inbounds %class.ReservedSpace, ptr %5, i32 0, i32 0
  %9 = load ptr, ptr %8, align 8
  %10 = getelementptr inbounds %class.ReservedSpace, ptr %5, i32 0, i32 2
  %11 = load i64, ptr %10, align 8
  %12 = sub i64 0, %11
  %13 = getelementptr inbounds i8, ptr %9, i64 %12
  store ptr %13, ptr %3, align 8
  %14 = getelementptr inbounds %class.ReservedSpace, ptr %5, i32 0, i32 1
  %15 = load i64, ptr %14, align 8
  %16 = getelementptr inbounds %class.ReservedSpace, ptr %5, i32 0, i32 2
  %17 = load i64, ptr %16, align 8
  %18 = add i64 %15, %17
  store i64 %18, ptr %4, align 8
  %19 = call noundef zeroext i1 @_ZNK13ReservedSpace7specialEv(ptr noundef nonnull align 8 dereferenceable(49) %5)
  br i1 %19, label %20, label %33

20:                                               ; preds = %7
  %21 = getelementptr inbounds %class.ReservedSpace, ptr %5, i32 0, i32 7
  %22 = load i32, ptr %21, align 4
  %23 = icmp ne i32 %22, -1
  br i1 %23, label %24, label %28

24:                                               ; preds = %20
  %25 = load ptr, ptr %3, align 8
  %26 = load i64, ptr %4, align 8
  %27 = call noundef zeroext i1 @_ZN2os12unmap_memoryEPcm(ptr noundef %25, i64 noundef %26)
  br label %32

28:                                               ; preds = %20
  %29 = load ptr, ptr %3, align 8
  %30 = load i64, ptr %4, align 8
  %31 = call noundef zeroext i1 @_ZN2os22release_memory_specialEPcm(ptr noundef %29, i64 noundef %30)
  br label %32

32:                                               ; preds = %28, %24
  br label %37

33:                                               ; preds = %7
  %34 = load ptr, ptr %3, align 8
  %35 = load i64, ptr %4, align 8
  %36 = call noundef zeroext i1 @_ZN2os14release_memoryEPcm(ptr noundef %34, i64 noundef %35)
  br label %37

37:                                               ; preds = %33, %32
  call void @_ZN13ReservedSpace13clear_membersEv(ptr noundef nonnull align 8 dereferenceable(49) %5)
  br label %38

38:                                               ; preds = %37, %1
  ret void
}

; Function Attrs: mustprogress nounwind uwtable
define internal noundef zeroext i1 @_ZL30failed_to_reserve_as_requestedPcS_(ptr noundef %0, ptr noundef %1) #1 {
  %3 = alloca i1, align 1
  %4 = alloca ptr, align 8
  %5 = alloca ptr, align 8
  store ptr %0, ptr %4, align 8
  store ptr %1, ptr %5, align 8
  %6 = load ptr, ptr %4, align 8
  %7 = load ptr, ptr %5, align 8
  %8 = icmp eq ptr %6, %7
  br i1 %8, label %12, label %9

9:                                                ; preds = %2
  %10 = load ptr, ptr %5, align 8
  %11 = icmp eq ptr %10, null
  br i1 %11, label %12, label %13

12:                                               ; preds = %9, %2
  store i1 false, ptr %3, align 1
  br label %26

13:                                               ; preds = %9
  %14 = load ptr, ptr %4, align 8
  %15 = icmp ne ptr %14, null
  br i1 %15, label %16, label %25

16:                                               ; preds = %13
  %17 = call noundef zeroext i1 @_ZN7LogImplILN6LogTag4typeE49ELS1_52ELS1_27ELS1_0ELS1_0ELS1_0EE8is_levelEN8LogLevel4typeE(i32 noundef 2)
  br i1 %17, label %19, label %18

18:                                               ; preds = %16
  br label %24

19:                                               ; preds = %16
  %20 = load ptr, ptr %4, align 8
  %21 = call noundef i64 @_Z3p2iPVKv(ptr noundef %20)
  %22 = load ptr, ptr %5, align 8
  %23 = call noundef i64 @_Z3p2iPVKv(ptr noundef %22)
  call void (ptr, ...) @_ZN7LogImplILN6LogTag4typeE49ELS1_52ELS1_27ELS1_0ELS1_0ELS1_0EE5writeILN8LogLevel4typeE2EEEvPKcz(ptr noundef @.str.34, i64 noundef %21, i64 noundef %23)
  br label %24

24:                                               ; preds = %19, %18
  br label %25

25:                                               ; preds = %24, %13
  store i1 true, ptr %3, align 1
  br label %26

26:                                               ; preds = %25, %12
  %27 = load i1, ptr %3, align 1
  ret i1 %27
}

; Function Attrs: mustprogress nounwind uwtable
define hidden void @_ZN13ReservedSpace13clear_membersEv(ptr noundef nonnull align 8 dereferenceable(49) %0) #1 align 2 {
  %2 = alloca ptr, align 8
  store ptr %0, ptr %2, align 8
  %3 = load ptr, ptr %2, align 8
  call void @_ZN13ReservedSpace18initialize_membersEPcmmmbb(ptr noundef nonnull align 8 dereferenceable(49) %3, ptr noundef null, i64 noundef 0, i64 noundef 0, i64 noundef 0, i1 noundef zeroext false, i1 noundef zeroext false)
  ret void
}

; Function Attrs: mustprogress nounwind uwtable
define linkonce_odr hidden noundef i64 @_Z10align_downImmTnNSt9enable_ifIXcvbsr3std11is_integralIT_EE5valueEiE4typeELi0EES1_S1_T0_(i64 noundef %0, i64 noundef %1) #1 comdat {
  %3 = alloca i64, align 8
  %4 = alloca i64, align 8
  %5 = alloca i64, align 8
  store i64 %0, ptr %3, align 8
  store i64 %1, ptr %4, align 8
  %6 = load i64, ptr %3, align 8
  %7 = load i64, ptr %4, align 8
  %8 = call noundef i64 @_ZL14alignment_maskImTnNSt9enable_ifIXcvbsr3std11is_integralIT_EE5valueEiE4typeELi0EES1_S1_(i64 noundef %7)
  %9 = xor i64 %8, -1
  %10 = and i64 %6, %9
  store i64 %10, ptr %5, align 8
  %11 = load i64, ptr %5, align 8
  ret i64 %11
}

; Function Attrs: mustprogress nounwind uwtable
define linkonce_odr hidden noundef i64 @_Z12checked_castImmET_T0_(i64 noundef %0) #1 comdat {
  %2 = alloca i64, align 8
  %3 = alloca i64, align 8
  store i64 %0, ptr %2, align 8
  %4 = load i64, ptr %2, align 8
  store i64 %4, ptr %3, align 8
  %5 = load i64, ptr %3, align 8
  ret i64 %5
}

; Function Attrs: mustprogress nounwind uwtable
define internal noundef i64 @_ZL14alignment_maskImTnNSt9enable_ifIXcvbsr3std11is_integralIT_EE5valueEiE4typeELi0EES1_S1_(i64 noundef %0) #1 {
  %2 = alloca i64, align 8
  store i64 %0, ptr %2, align 8
  %3 = load i64, ptr %2, align 8
  %4 = sub i64 %3, 1
  ret i64 %4
}

; Function Attrs: mustprogress nounwind uwtable
define linkonce_odr hidden noundef i64 @_ZN6OSInfo12vm_page_sizeEv() #1 comdat align 2 {
  %1 = load i64, ptr @_ZN6OSInfo13_vm_page_sizeE, align 8
  ret i64 %1
}

; Function Attrs: mustprogress nounwind uwtable
define linkonce_odr hidden noundef i64 @_ZN6OSInfo25vm_allocation_granularityEv() #1 comdat align 2 {
  %1 = load i64, ptr @_ZN6OSInfo26_vm_allocation_granularityE, align 8
  ret i64 %1
}

; Function Attrs: mustprogress nounwind uwtable
define hidden void @_ZN13ReservedSpace10initializeEmmmPcb(ptr noundef nonnull align 8 dereferenceable(49) %0, i64 noundef %1, i64 noundef %2, i64 noundef %3, ptr noundef %4, i1 noundef zeroext %5) #1 align 2 {
  %7 = alloca ptr, align 8
  %8 = alloca i64, align 8
  %9 = alloca i64, align 8
  %10 = alloca i64, align 8
  %11 = alloca ptr, align 8
  %12 = alloca i8, align 1
  %13 = alloca i64, align 8
  store ptr %0, ptr %7, align 8
  store i64 %1, ptr %8, align 8
  store i64 %2, ptr %9, align 8
  store i64 %3, ptr %10, align 8
  store ptr %4, ptr %11, align 8
  %14 = zext i1 %5 to i8
  store i8 %14, ptr %12, align 1
  %15 = load ptr, ptr %7, align 8
  %16 = call noundef i64 @_ZN2os25vm_allocation_granularityEv()
  store i64 %16, ptr %13, align 8
  call void @_ZN13ReservedSpace13clear_membersEv(ptr noundef nonnull align 8 dereferenceable(49) %15)
  %17 = load i64, ptr %8, align 8
  %18 = icmp eq i64 %17, 0
  br i1 %18, label %19, label %20

19:                                               ; preds = %6
  br label %35

20:                                               ; preds = %6
  %21 = load i64, ptr %9, align 8
  %22 = call noundef i64 @_ZN2os12vm_page_sizeEv()
  %23 = call noundef i64 @_Z4MAX2ImET_S0_S0_(i64 noundef %21, i64 noundef %22)
  store i64 %23, ptr %9, align 8
  %24 = load i64, ptr %8, align 8
  %25 = load i64, ptr %9, align 8
  %26 = load i64, ptr %10, align 8
  %27 = load ptr, ptr %11, align 8
  %28 = load i8, ptr %12, align 1
  %29 = trunc i8 %28 to i1
  call void @_ZN13ReservedSpace7reserveEmmmPcb(ptr noundef nonnull align 8 dereferenceable(49) %15, i64 noundef %24, i64 noundef %25, i64 noundef %26, ptr noundef %27, i1 noundef zeroext %29)
  %30 = getelementptr inbounds %class.ReservedSpace, ptr %15, i32 0, i32 0
  %31 = load ptr, ptr %30, align 8
  %32 = load ptr, ptr %11, align 8
  %33 = call noundef zeroext i1 @_ZL30failed_to_reserve_as_requestedPcS_(ptr noundef %31, ptr noundef %32)
  br i1 %33, label %34, label %35

34:                                               ; preds = %20
  call void @_ZN13ReservedSpace7releaseEv(ptr noundef nonnull align 8 dereferenceable(49) %15)
  br label %35

35:                                               ; preds = %34, %20, %19
  ret void
}

; Function Attrs: mustprogress nounwind uwtable
define linkonce_odr hidden noundef i64 @_Z8align_upImmTnNSt9enable_ifIXcvbsr3std11is_integralIT_EE5valueEiE4typeELi0EES1_S1_T0_(i64 noundef %0, i64 noundef %1) #1 comdat {
  %3 = alloca i64, align 8
  %4 = alloca i64, align 8
  %5 = alloca i64, align 8
  store i64 %0, ptr %3, align 8
  store i64 %1, ptr %4, align 8
  %6 = load i64, ptr %3, align 8
  %7 = load i64, ptr %4, align 8
  %8 = call noundef i64 @_ZL14alignment_maskImTnNSt9enable_ifIXcvbsr3std11is_integralIT_EE5valueEiE4typeELi0EES1_S1_(i64 noundef %7)
  %9 = add i64 %6, %8
  %10 = call noundef i64 @_Z12checked_castImmET_T0_(i64 noundef %9)
  store i64 %10, ptr %5, align 8
  %11 = load i64, ptr %5, align 8
  %12 = load i64, ptr %4, align 8
  %13 = call noundef i64 @_Z10align_downImmTnNSt9enable_ifIXcvbsr3std11is_integralIT_EE5valueEiE4typeELi0EES1_S1_T0_(i64 noundef %11, i64 noundef %12)
  ret i64 %13
}

; Function Attrs: mustprogress nounwind uwtable
define linkonce_odr hidden noundef i64 @_Z4MAX2ImET_S0_S0_(i64 noundef %0, i64 noundef %1) #1 comdat {
  %3 = alloca i64, align 8
  %4 = alloca i64, align 8
  store i64 %0, ptr %3, align 8
  store i64 %1, ptr %4, align 8
  %5 = load i64, ptr %3, align 8
  %6 = load i64, ptr %4, align 8
  %7 = icmp ugt i64 %5, %6
  br i1 %7, label %8, label %10

8:                                                ; preds = %2
  %9 = load i64, ptr %3, align 8
  br label %12

10:                                               ; preds = %2
  %11 = load i64, ptr %4, align 8
  br label %12

12:                                               ; preds = %10, %8
  %13 = phi i64 [ %9, %8 ], [ %11, %10 ]
  ret i64 %13
}

; Function Attrs: mustprogress nounwind uwtable
define linkonce_odr hidden noundef i64 @_ZN2os12vm_page_sizeEv() #1 comdat align 2 {
  %1 = call noundef i64 @_ZN6OSInfo12vm_page_sizeEv()
  ret i64 %1
}

; Function Attrs: mustprogress nounwind uwtable
define linkonce_odr hidden noundef i64 @_ZN2os25vm_allocation_granularityEv() #1 comdat align 2 {
  %1 = call noundef i64 @_ZN6OSInfo25vm_allocation_granularityEv()
  ret i64 %1
}

; Function Attrs: mustprogress nounwind uwtable
define hidden void @_ZN13ReservedSpaceC2Emm(ptr noundef nonnull align 8 dereferenceable(49) %0, i64 noundef %1, i64 noundef %2) unnamed_addr #1 align 2 {
  %4 = alloca ptr, align 8
  %5 = alloca i64, align 8
  %6 = alloca i64, align 8
  %7 = alloca i64, align 8
  store ptr %0, ptr %4, align 8
  store i64 %1, ptr %5, align 8
  store i64 %2, ptr %6, align 8
  %8 = load ptr, ptr %4, align 8
  %9 = getelementptr inbounds %class.ReservedSpace, ptr %8, i32 0, i32 7
  store i32 -1, ptr %9, align 4
  %10 = call noundef i64 @_ZN2os25vm_allocation_granularityEv()
  store i64 %10, ptr %7, align 8
  %11 = load i64, ptr %6, align 8
  %12 = call noundef i64 @_ZN2os12vm_page_sizeEv()
  %13 = icmp ne i64 %11, %12
  br i1 %13, label %14, label %21

14:                                               ; preds = %3
  %15 = load i64, ptr %6, align 8
  %16 = load i64, ptr %7, align 8
  %17 = call noundef i64 @_Z4MAX2ImET_S0_S0_(i64 noundef %15, i64 noundef %16)
  store i64 %17, ptr %7, align 8
  %18 = load i64, ptr %5, align 8
  %19 = load i64, ptr %7, align 8
  %20 = call noundef i64 @_Z8align_upImmTnNSt9enable_ifIXcvbsr3std11is_integralIT_EE5valueEiE4typeELi0EES1_S1_T0_(i64 noundef %18, i64 noundef %19)
  store i64 %20, ptr %5, align 8
  br label %21

21:                                               ; preds = %14, %3
  %22 = load i64, ptr %5, align 8
  %23 = load i64, ptr %7, align 8
  %24 = load i64, ptr %6, align 8
  call void @_ZN13ReservedSpace10initializeEmmmPcb(ptr noundef nonnull align 8 dereferenceable(49) %8, i64 noundef %22, i64 noundef %23, i64 noundef %24, ptr noundef null, i1 noundef zeroext false)
  ret void
}