; Function Attrs: mustprogress nounwind uwtable
define hidden void @_ZN13ReservedSpaceC2Emm(ptr nocapture noundef nonnull align 8 dereferenceable(49) %0, i64 noundef %1, i64 noundef %2) unnamed_addr #1 align 2 {
  %4 = getelementptr inbounds i8, ptr %0, i64 44
  store i32 -1, ptr %4, align 4
  %5 = load i64, ptr @_ZN6OSInfo26_vm_allocation_granularityE, align 8
  %6 = load i64, ptr @_ZN6OSInfo13_vm_page_sizeE, align 8
  %.not = icmp eq i64 %6, %2
  br i1 %.not, label %13, label %7

7:                                                ; preds = %3
  %8 = tail call noundef i64 @llvm.umax.i64(i64 %2, i64 %5)
  %9 = add i64 %1, -1
  %10 = add i64 %9, %8
  %11 = sub i64 0, %8
  %12 = and i64 %10, %11
  br label %13

13:                                               ; preds = %7, %3
  %.08 = phi i64 [ %12, %7 ], [ %1, %3 ]
  %.0 = phi i64 [ %8, %7 ], [ %5, %3 ]
  %14 = getelementptr inbounds i8, ptr %0, i64 48
  store i8 0, ptr %14, align 8
  tail call void @llvm.memset.p0.i64(ptr noundef nonnull align 8 dereferenceable(41) %0, i8 0, i64 41, i1 false)
  %15 = icmp eq i64 %.08, 0
  br i1 %15, label %_ZN13ReservedSpace10initializeEmmmPcb.exit, label %16

16:                                               ; preds = %13
  %17 = load i64, ptr @_ZN6OSInfo13_vm_page_sizeE, align 8
  %18 = tail call noundef i64 @llvm.umax.i64(i64 %.0, i64 %17)
  tail call void @_ZN13ReservedSpace7reserveEmmmPcb(ptr noundef nonnull align 8 dereferenceable(49) %0, i64 noundef %.08, i64 noundef %18, i64 noundef %2, ptr noundef null, i1 noundef zeroext false)
  br label %_ZN13ReservedSpace10initializeEmmmPcb.exit

_ZN13ReservedSpace10initializeEmmmPcb.exit:       ; preds = %13, %16
  ret void
}